target datalayout = "e-m:e-p270:32:32-p271:32:32-p272:64:64-i64:64-i128:128-f80:128-n8:16:32:64-S128"
target triple = "x86_64-pc-linux-gnu"

%struct.H5B2_hdr_t = type { %struct.H5C_cache_entry_t, %struct.H5B2_node_ptr_t, i8, i8, i32, i32, i16, i8, ptr, i64, i64, i64, i64, i8, i8, i8, ptr, ptr, ptr, ptr, ptr, ptr, ptr, i8, ptr, ptr, i64, ptr, ptr }
%struct.H5C_cache_entry_t = type { ptr, i64, i64, ptr, i8, ptr, i8, i8, i8, i8, i32, i8, i8, i8, i8, i8, i32, ptr, i32, i32, i32, i32, i32, i8, i8, ptr, ptr, ptr, ptr, ptr, ptr, i8, i32, i8, i64, ptr, i64, i64, i32, i8, i32, i32, i8, ptr, ptr, ptr }
%struct.H5B2_node_ptr_t = type { i64, i16, i64 }

@H5B2_init_g = external global i8, align 1
@H5_libterm_g = external global i8, align 1
@.str.3 = private unnamed_addr constant [103 x i8] c"generated/home/dtcxzyw/WorkSpace/Projects/compilers/llvm-opt-benchmark/bench/hdf5/hdf5/src/H5B2cache.c\00", align 1
@H5E_BTREE_g = external global i64, align 8
@H5E_BADVALUE_g = external global i64, align 8
@__func__.H5B2__cache_hdr_notify = private unnamed_addr constant [23 x i8] c"H5B2__cache_hdr_notify\00", align 1
@H5E_CANTUNDEPEND_g = external global i64, align 8
@.str.12 = private unnamed_addr constant [63 x i8] c"unable to destroy flush dependency between v2 B-tree and proxy\00", align 1
@.str.13 = private unnamed_addr constant [76 x i8] c"unable to destroy flush dependency between header and v2 B-tree 'top' proxy\00", align 1
@.str.14 = private unnamed_addr constant [35 x i8] c"unknown action from metadata cache\00", align 1

; Function Attrs: nounwind uwtable
define internal i32 @H5B2__cache_hdr_notify(i32 noundef %0, ptr noundef %1) #0 {
  %3 = alloca i32, align 4
  %4 = alloca ptr, align 8
  %5 = alloca ptr, align 8
  %6 = alloca i32, align 4
  %7 = alloca i8, align 1
  store i32 %0, ptr %3, align 4, !tbaa !22
  store ptr %1, ptr %4, align 8, !tbaa !3
  call void @llvm.lifetime.start.p0(i64 8, ptr %5) #7
  %8 = load ptr, ptr %4, align 8, !tbaa !3
  store ptr %8, ptr %5, align 8, !tbaa !26
  call void @llvm.lifetime.start.p0(i64 4, ptr %6) #7
  store i32 0, ptr %6, align 4, !tbaa !22
  call void @llvm.lifetime.start.p0(i64 1, ptr %7) #7
  store i8 0, ptr %7, align 1, !tbaa !11
  %9 = load i8, ptr @H5B2_init_g, align 1, !tbaa !11, !range !13, !noundef !14
  %10 = trunc i8 %9 to i1
  br i1 %10, label %15, label %11

11:                                               ; preds = %2
  %12 = load i8, ptr @H5_libterm_g, align 1, !tbaa !11, !range !13, !noundef !14
  %13 = trunc i8 %12 to i1
  %14 = xor i1 %13, true
  br label %15

15:                                               ; preds = %11, %2
  %16 = phi i1 [ true, %2 ], [ %14, %11 ]
  %17 = xor i1 %16, true
  %18 = xor i1 %17, true
  %19 = zext i1 %18 to i32
  %20 = sext i32 %19 to i64
  %21 = call i64 @llvm.expect.i64(i64 %20, i64 1)
  %22 = icmp ne i64 %21, 0
  br i1 %22, label %23, label %129

23:                                               ; preds = %15
  %24 = load ptr, ptr %5, align 8, !tbaa !26
  %25 = getelementptr inbounds nuw %struct.H5B2_hdr_t, ptr %24, i32 0, i32 23
  %26 = load i8, ptr %25, align 8, !tbaa !68, !range !13, !noundef !14
  %27 = trunc i8 %26 to i1
  br i1 %27, label %28, label %126

28:                                               ; preds = %23
  %29 = load i32, ptr %3, align 4, !tbaa !22
  switch i32 %29, label %106 [
    i32 0, label %30
    i32 1, label %30
    i32 2, label %31
    i32 4, label %36
    i32 5, label %36
    i32 6, label %36
    i32 7, label %36
    i32 8, label %36
    i32 9, label %36
    i32 3, label %37
  ]

30:                                               ; preds = %28, %28
  br label %125

31:                                               ; preds = %28
  %32 = load ptr, ptr %5, align 8, !tbaa !26
  %33 = getelementptr inbounds nuw %struct.H5B2_hdr_t, ptr %32, i32 0, i32 26
  %34 = load i64, ptr %33, align 8, !tbaa !69
  %35 = add i64 %34, 1
  store i64 %35, ptr %33, align 8, !tbaa !69
  br label %125

36:                                               ; preds = %28, %28, %28, %28, %28, %28
  br label %125

37:                                               ; preds = %28
  %38 = load ptr, ptr %5, align 8, !tbaa !26
  %39 = getelementptr inbounds nuw %struct.H5B2_hdr_t, ptr %38, i32 0, i32 25
  %40 = load ptr, ptr %39, align 8, !tbaa !70
  %41 = icmp ne ptr %40, null
  br i1 %41, label %42, label %73

42:                                               ; preds = %37
  %43 = load ptr, ptr %5, align 8, !tbaa !26
  %44 = getelementptr inbounds nuw %struct.H5B2_hdr_t, ptr %43, i32 0, i32 25
  %45 = load ptr, ptr %44, align 8, !tbaa !70
  %46 = load ptr, ptr %5, align 8, !tbaa !26
  %47 = getelementptr inbounds nuw %struct.H5B2_hdr_t, ptr %46, i32 0, i32 24
  %48 = load ptr, ptr %47, align 8, !tbaa !71
  %49 = call i32 @H5AC_proxy_entry_remove_child(ptr noundef %45, ptr noundef %48)
  %50 = icmp slt i32 %49, 0
  br i1 %50, label %51, label %70

51:                                               ; preds = %42
  br label %52

52:                                               ; preds = %51
  br label %53

53:                                               ; preds = %52
  br label %54

54:                                               ; preds = %53
  %55 = load i64, ptr @H5E_BTREE_g, align 8, !tbaa !19
  %56 = load i64, ptr @H5E_CANTUNDEPEND_g, align 8, !tbaa !19
  %57 = call i32 (ptr, ptr, i32, i64, i64, ptr, ...) @H5E_printf_stack(ptr noundef @.str.3, ptr noundef @__func__.H5B2__cache_hdr_notify, i32 noundef 457, i64 noundef %55, i64 noundef %56, ptr noundef @.str.12)
  br label %58

58:                                               ; preds = %54
  br label %59

59:                                               ; preds = %58
  store i8 1, ptr %7, align 1, !tbaa !11
  %60 = load i8, ptr %7, align 1, !tbaa !11, !range !13, !noundef !14
  %61 = trunc i8 %60 to i1
  %62 = zext i1 %61 to i8
  store i8 %62, ptr %7, align 1, !tbaa !11
  br label %63

63:                                               ; preds = %59
  br label %64

64:                                               ; preds = %63
  br label %65

65:                                               ; preds = %64
  store i32 -1, ptr %6, align 4, !tbaa !22
  br label %128

66:                                               ; No predecessors!
  br label %67

67:                                               ; preds = %66
  br label %68

68:                                               ; preds = %67
  br label %69

69:                                               ; preds = %68
  br label %70

70:                                               ; preds = %69, %42
  %71 = load ptr, ptr %5, align 8, !tbaa !26
  %72 = getelementptr inbounds nuw %struct.H5B2_hdr_t, ptr %71, i32 0, i32 25
  store ptr null, ptr %72, align 8, !tbaa !70
  br label %73

73:                                               ; preds = %70, %37
  %74 = load ptr, ptr %5, align 8, !tbaa !26
  %75 = getelementptr inbounds nuw %struct.H5B2_hdr_t, ptr %74, i32 0, i32 24
  %76 = load ptr, ptr %75, align 8, !tbaa !71
  %77 = icmp ne ptr %76, null
  br i1 %77, label %78, label %105

78:                                               ; preds = %73
  %79 = load ptr, ptr %5, align 8, !tbaa !26
  %80 = getelementptr inbounds nuw %struct.H5B2_hdr_t, ptr %79, i32 0, i32 24
  %81 = load ptr, ptr %80, align 8, !tbaa !71
  %82 = load ptr, ptr %5, align 8, !tbaa !26
  %83 = call i32 @H5AC_proxy_entry_remove_child(ptr noundef %81, ptr noundef %82)
  %84 = icmp slt i32 %83, 0
  br i1 %84, label %85, label %104

85:                                               ; preds = %78
  br label %86

86:                                               ; preds = %85
  br label %87

87:                                               ; preds = %86
  br label %88

88:                                               ; preds = %87
  %89 = load i64, ptr @H5E_BTREE_g, align 8, !tbaa !19
  %90 = load i64, ptr @H5E_CANTUNDEPEND_g, align 8, !tbaa !19
  %91 = call i32 (ptr, ptr, i32, i64, i64, ptr, ...) @H5E_printf_stack(ptr noundef @.str.3, ptr noundef @__func__.H5B2__cache_hdr_notify, i32 noundef 466, i64 noundef %89, i64 noundef %90, ptr noundef @.str.13)
  br label %92

92:                                               ; preds = %88
  br label %93

93:                                               ; preds = %92
  store i8 1, ptr %7, align 1, !tbaa !11
  %94 = load i8, ptr %7, align 1, !tbaa !11, !range !13, !noundef !14
  %95 = trunc i8 %94 to i1
  %96 = zext i1 %95 to i8
  store i8 %96, ptr %7, align 1, !tbaa !11
  br label %97

97:                                               ; preds = %93
  br label %98

98:                                               ; preds = %97
  br label %99

99:                                               ; preds = %98
  store i32 -1, ptr %6, align 4, !tbaa !22
  br label %128

100:                                              ; No predecessors!
  br label %101

101:                                              ; preds = %100
  br label %102

102:                                              ; preds = %101
  br label %103

103:                                              ; preds = %102
  br label %104

104:                                              ; preds = %103, %78
  br label %105

105:                                              ; preds = %104, %73
  br label %125

106:                                              ; preds = %28
  br label %107

107:                                              ; preds = %106
  br label %108

108:                                              ; preds = %107
  br label %109

109:                                              ; preds = %108
  %110 = load i64, ptr @H5E_BTREE_g, align 8, !tbaa !19
  %111 = load i64, ptr @H5E_BADVALUE_g, align 8, !tbaa !19
  %112 = call i32 (ptr, ptr, i32, i64, i64, ptr, ...) @H5E_printf_stack(ptr noundef @.str.3, ptr noundef @__func__.H5B2__cache_hdr_notify, i32 noundef 473, i64 noundef %110, i64 noundef %111, ptr noundef @.str.14)
  br label %113

113:                                              ; preds = %109
  br label %114

114:                                              ; preds = %113
  store i8 1, ptr %7, align 1, !tbaa !11
  %115 = load i8, ptr %7, align 1, !tbaa !11, !range !13, !noundef !14
  %116 = trunc i8 %115 to i1
  %117 = zext i1 %116 to i8
  store i8 %117, ptr %7, align 1, !tbaa !11
  br label %118

118:                                              ; preds = %114
  br label %119

119:                                              ; preds = %118
  br label %120

120:                                              ; preds = %119
  store i32 -1, ptr %6, align 4, !tbaa !22
  br label %128

121:                                              ; No predecessors!
  br label %122

122:                                              ; preds = %121
  br label %123

123:                                              ; preds = %122
  br label %124

124:                                              ; preds = %123
  br label %125

125:                                              ; preds = %124, %105, %36, %31, %30
  br label %127

126:                                              ; preds = %23
  br label %127

127:                                              ; preds = %126, %125
  br label %128

128:                                              ; preds = %127, %120, %99, %65
  br label %129

129:                                              ; preds = %128, %15
  %130 = load i32, ptr %6, align 4, !tbaa !22
  call void @llvm.lifetime.end.p0(i64 1, ptr %7) #7
  call void @llvm.lifetime.end.p0(i64 4, ptr %6) #7
  call void @llvm.lifetime.end.p0(i64 8, ptr %5) #7
  ret i32 %130
}