; Function Attrs: nounwind uwtable
define internal range(i32 -1, 1) i32 @H5B2__cache_hdr_notify(i32 noundef %0, ptr noundef %1) #0 {
  %3 = load i8, ptr @H5B2_init_g, align 1, !tbaa !3, !range !7, !noundef !8
  %4 = trunc nuw i8 %3 to i1
  %5 = load i8, ptr @H5_libterm_g, align 1, !range !7
  %6 = trunc nuw i8 %5 to i1
  %7 = xor i1 %6, true
  %8 = select i1 %4, i1 true, i1 %7
  br i1 %8, label %9, label %45, !prof !9

9:                                                ; preds = %2
  %10 = getelementptr inbounds nuw i8, ptr %1, i64 392
  %11 = load i8, ptr %10, align 8, !tbaa !58, !range !7, !noundef !8
  %12 = trunc nuw i8 %11 to i1
  br i1 %12, label %13, label %45

13:                                               ; preds = %9
  switch i32 %0, label %41 [
    i32 0, label %45
    i32 1, label %45
    i32 2, label %14
    i32 4, label %45
    i32 5, label %45
    i32 6, label %45
    i32 7, label %45
    i32 8, label %45
    i32 9, label %45
    i32 3, label %18
  ]

14:                                               ; preds = %13
  %15 = getelementptr inbounds nuw i8, ptr %1, i64 416
  %16 = load i64, ptr %15, align 8, !tbaa !59
  %17 = add i64 %16, 1
  store i64 %17, ptr %15, align 8, !tbaa !59
  br label %45

18:                                               ; preds = %13
  %19 = getelementptr inbounds nuw i8, ptr %1, i64 408
  %20 = load ptr, ptr %19, align 8, !tbaa !60
  %.not = icmp eq ptr %20, null
  br i1 %.not, label %31, label %21

21:                                               ; preds = %18
  %22 = getelementptr inbounds nuw i8, ptr %1, i64 400
  %23 = load ptr, ptr %22, align 8, !tbaa !61
  %24 = tail call i32 @H5AC_proxy_entry_remove_child(ptr noundef nonnull %20, ptr noundef %23) #6
  %25 = icmp slt i32 %24, 0
  br i1 %25, label %26, label %30

26:                                               ; preds = %21
  %27 = load i64, ptr @H5E_BTREE_g, align 8, !tbaa !15
  %28 = load i64, ptr @H5E_CANTUNDEPEND_g, align 8, !tbaa !15
  %29 = tail call i32 (ptr, ptr, i32, i64, i64, ptr, ...) @H5E_printf_stack(ptr noundef nonnull @.str.3, ptr noundef nonnull @__func__.H5B2__cache_hdr_notify, i32 noundef 457, i64 noundef %27, i64 noundef %28, ptr noundef nonnull @.str.12) #6
  br label %45

30:                                               ; preds = %21
  store ptr null, ptr %19, align 8, !tbaa !60
  br label %31

31:                                               ; preds = %30, %18
  %32 = getelementptr inbounds nuw i8, ptr %1, i64 400
  %33 = load ptr, ptr %32, align 8, !tbaa !61
  %.not16 = icmp eq ptr %33, null
  br i1 %.not16, label %45, label %34

34:                                               ; preds = %31
  %35 = tail call i32 @H5AC_proxy_entry_remove_child(ptr noundef nonnull %33, ptr noundef nonnull %1) #6
  %36 = icmp slt i32 %35, 0
  br i1 %36, label %37, label %45

37:                                               ; preds = %34
  %38 = load i64, ptr @H5E_BTREE_g, align 8, !tbaa !15
  %39 = load i64, ptr @H5E_CANTUNDEPEND_g, align 8, !tbaa !15
  %40 = tail call i32 (ptr, ptr, i32, i64, i64, ptr, ...) @H5E_printf_stack(ptr noundef nonnull @.str.3, ptr noundef nonnull @__func__.H5B2__cache_hdr_notify, i32 noundef 466, i64 noundef %38, i64 noundef %39, ptr noundef nonnull @.str.13) #6
  br label %45

41:                                               ; preds = %13
  %42 = load i64, ptr @H5E_BTREE_g, align 8, !tbaa !15
  %43 = load i64, ptr @H5E_BADVALUE_g, align 8, !tbaa !15
  %44 = tail call i32 (ptr, ptr, i32, i64, i64, ptr, ...) @H5E_printf_stack(ptr noundef nonnull @.str.3, ptr noundef nonnull @__func__.H5B2__cache_hdr_notify, i32 noundef 473, i64 noundef %42, i64 noundef %43, ptr noundef nonnull @.str.14) #6
  br label %45

45:                                               ; preds = %26, %37, %41, %9, %14, %13, %13, %13, %13, %13, %13, %13, %13, %34, %31, %2
  %.0 = phi i32 [ -1, %41 ], [ -1, %26 ], [ -1, %37 ], [ 0, %34 ], [ 0, %31 ], [ 0, %14 ], [ 0, %13 ], [ 0, %13 ], [ 0, %13 ], [ 0, %13 ], [ 0, %13 ], [ 0, %13 ], [ 0, %13 ], [ 0, %13 ], [ 0, %9 ], [ 0, %2 ]
  ret i32 %.0
}